target datalayout = "e-m:e-p270:32:32-p271:32:32-p272:64:64-i64:64-i128:128-f80:128-n8:16:32:64-S128"
target triple = "x86_64-pc-linux-gnu"

%struct.SDL_DriverSwitch_Context = type <{ ptr, ptr, i8, i8, i8, i8, i32, i8, [3 x i8], i32, i32, i8, i8, [6 x i8], i8, [3 x i8], i32, i8, i8, %struct.SwitchCommonOutputPacket_t, [64 x i8], i8, [7 x i8], i64, i8, i8, [2 x i8], i32, i8, i8, i8, [5 x i8], i64, i64, i64, i32, [4 x i8], i64, i64, i8, %struct.SwitchInputOnlyControllerStatePacket_t, %struct.SwitchSimpleStatePacket_t, %struct.SwitchStatePacket_t, i8, [2 x %struct.StickCalibrationData], [2 x %struct.StickExtents], [2 x %struct.StickExtents], %struct.IMUScaleData, [4 x i8] }>
%struct.SwitchCommonOutputPacket_t = type { i8, i8, [2 x %struct.SwitchRumbleData_t] }
%struct.SwitchRumbleData_t = type { [4 x i8] }
%struct.SwitchInputOnlyControllerStatePacket_t = type { [2 x i8], i8, [2 x i8], [2 x i8] }
%struct.SwitchSimpleStatePacket_t = type <{ [2 x i8], i8, [2 x i16], [2 x i16] }>
%struct.SwitchStatePacket_t = type { %struct.SwitchControllerStatePacket_t, [3 x %struct.anon] }
%struct.SwitchControllerStatePacket_t = type { i8, i8, [3 x i8], [3 x i8], [3 x i8], i8 }
%struct.anon = type { i16, i16, i16, i16, i16, i16 }
%struct.StickCalibrationData = type { [2 x %struct.anon.0] }
%struct.anon.0 = type { i16, i16, i16 }
%struct.StickExtents = type { [2 x %struct.anon.1] }
%struct.anon.1 = type { i16, i16 }
%struct.IMUScaleData = type { float, float, float, float, float, float }
%struct.SDL_HIDAPI_Device = type { ptr, ptr, ptr, ptr, i16, i16, i16, ptr, %struct.SDL_GUID, i32, i32, i32, i32, i16, i16, i8, i32, i32, i32, ptr, ptr, ptr, ptr, %struct.SDL_AtomicInt, i32, ptr, i8, i8, i8, ptr, i32, ptr, ptr }
%struct.SDL_GUID = type { [16 x i8] }
%struct.SDL_AtomicInt = type { i32 }

@.str.27 = private unnamed_addr constant [32 x i8] c"That operation is not supported\00", align 1
@.str.28 = private unnamed_addr constant [40 x i8] c"Unknown Nintendo Switch Pro effect type\00", align 1

; Function Attrs: nounwind uwtable
define internal i32 @WriteOutput(ptr noundef %0, ptr noundef %1, i32 noundef %2) #0 {
  %4 = alloca i32, align 4
  %5 = alloca ptr, align 8
  %6 = alloca ptr, align 8
  %7 = alloca i32, align 4
  store ptr %0, ptr %5, align 8
  store ptr %1, ptr %6, align 8
  store i32 %2, ptr %7, align 4
  %8 = call zeroext i1 @SDL_HIDAPI_LockRumble()
  br i1 %8, label %10, label %9

9:                                                ; preds = %3
  store i32 -1, ptr %4, align 4
  br label %17

10:                                               ; preds = %3
  %11 = load ptr, ptr %5, align 8
  %12 = getelementptr inbounds nuw %struct.SDL_DriverSwitch_Context, ptr %11, i32 0, i32 0
  %13 = load ptr, ptr %12, align 8
  %14 = load ptr, ptr %6, align 8
  %15 = load i32, ptr %7, align 4
  %16 = call i32 @SDL_HIDAPI_SendRumbleAndUnlock(ptr noundef %13, ptr noundef %14, i32 noundef %15)
  store i32 %16, ptr %4, align 4
  br label %17

17:                                               ; preds = %10, %9
  %18 = load i32, ptr %4, align 4
  ret i32 %18
}

; Function Attrs: nounwind uwtable
define internal zeroext i1 @WritePacket(ptr noundef %0, ptr noundef %1, i8 noundef zeroext %2) #0 {
  %4 = alloca i1, align 1
  %5 = alloca ptr, align 8
  %6 = alloca ptr, align 8
  %7 = alloca i8, align 1
  %8 = alloca [64 x i8], align 16
  %9 = alloca i64, align 8
  %10 = alloca i32, align 4
  store ptr %0, ptr %5, align 8
  store ptr %1, ptr %6, align 8
  store i8 %2, ptr %7, align 1
  call void @llvm.lifetime.start.p0(i64 64, ptr %8) #6
  call void @llvm.lifetime.start.p0(i64 8, ptr %9) #6
  %11 = load ptr, ptr %5, align 8
  %12 = getelementptr inbounds nuw %struct.SDL_DriverSwitch_Context, ptr %11, i32 0, i32 0
  %13 = load ptr, ptr %12, align 8
  %14 = getelementptr inbounds nuw %struct.SDL_HIDAPI_Device, ptr %13, i32 0, i32 15
  %15 = load i8, ptr %14, align 4, !range !3, !noundef !4
  %16 = trunc i8 %15 to i1
  %17 = select i1 %16, i32 49, i32 64
  %18 = sext i32 %17 to i64
  store i64 %18, ptr %9, align 8
  %19 = load i8, ptr %7, align 1
  %20 = zext i8 %19 to i32
  %21 = icmp sgt i32 %20, 49
  br i1 %21, label %22, label %23

22:                                               ; preds = %3
  store i1 false, ptr %4, align 1
  store i32 1, ptr %10, align 4
  br label %68

23:                                               ; preds = %3
  %24 = load i8, ptr %7, align 1
  %25 = zext i8 %24 to i64
  %26 = load i64, ptr %9, align 8
  %27 = icmp ult i64 %25, %26
  br i1 %27, label %28, label %45

28:                                               ; preds = %23
  %29 = getelementptr inbounds [64 x i8], ptr %8, i64 0, i64 0
  %30 = load ptr, ptr %6, align 8
  %31 = load i8, ptr %7, align 1
  %32 = zext i8 %31 to i64
  call void @llvm.memcpy.p0.p0.i64(ptr align 16 %29, ptr align 1 %30, i64 %32, i1 false)
  %33 = getelementptr inbounds [64 x i8], ptr %8, i64 0, i64 0
  %34 = load i8, ptr %7, align 1
  %35 = zext i8 %34 to i32
  %36 = sext i32 %35 to i64
  %37 = getelementptr inbounds i8, ptr %33, i64 %36
  %38 = load i64, ptr %9, align 8
  %39 = load i8, ptr %7, align 1
  %40 = zext i8 %39 to i64
  %41 = sub i64 %38, %40
  call void @llvm.memset.p0.i64(ptr align 1 %37, i8 0, i64 %41, i1 false)
  %42 = getelementptr inbounds [64 x i8], ptr %8, i64 0, i64 0
  store ptr %42, ptr %6, align 8
  %43 = load i64, ptr %9, align 8
  %44 = trunc i64 %43 to i8
  store i8 %44, ptr %7, align 1
  br label %45

45:                                               ; preds = %28, %23
  %46 = load ptr, ptr %5, align 8
  %47 = getelementptr inbounds nuw %struct.SDL_DriverSwitch_Context, ptr %46, i32 0, i32 7
  %48 = load i8, ptr %47, align 8, !range !3, !noundef !4
  %49 = trunc i8 %48 to i1
  br i1 %49, label %50, label %61

50:                                               ; preds = %45
  %51 = load ptr, ptr %5, align 8
  %52 = getelementptr inbounds nuw %struct.SDL_DriverSwitch_Context, ptr %51, i32 0, i32 0
  %53 = load ptr, ptr %52, align 8
  %54 = getelementptr inbounds nuw %struct.SDL_HIDAPI_Device, ptr %53, i32 0, i32 22
  %55 = load ptr, ptr %54, align 8
  %56 = load ptr, ptr %6, align 8
  %57 = load i8, ptr %7, align 1
  %58 = zext i8 %57 to i64
  %59 = call i32 @SDL_hid_write_REAL(ptr noundef %55, ptr noundef %56, i64 noundef %58)
  %60 = icmp sge i32 %59, 0
  store i1 %60, ptr %4, align 1
  store i32 1, ptr %10, align 4
  br label %68

61:                                               ; preds = %45
  %62 = load ptr, ptr %5, align 8
  %63 = load ptr, ptr %6, align 8
  %64 = load i8, ptr %7, align 1
  %65 = zext i8 %64 to i32
  %66 = call i32 @WriteOutput(ptr noundef %62, ptr noundef %63, i32 noundef %65)
  %67 = icmp sge i32 %66, 0
  store i1 %67, ptr %4, align 1
  store i32 1, ptr %10, align 4
  br label %68

68:                                               ; preds = %61, %50, %22
  call void @llvm.lifetime.end.p0(i64 8, ptr %9) #6
  call void @llvm.lifetime.end.p0(i64 64, ptr %8) #6
  %69 = load i1, ptr %4, align 1
  ret i1 %69
}

; Function Attrs: nounwind uwtable
define internal zeroext i1 @HasHomeLED(ptr noundef %0) #0 {
  %2 = alloca i1, align 1
  %3 = alloca ptr, align 8
  %4 = alloca i16, align 2
  %5 = alloca i16, align 2
  %6 = alloca i32, align 4
  store ptr %0, ptr %3, align 8
  call void @llvm.lifetime.start.p0(i64 2, ptr %4) #6
  %7 = load ptr, ptr %3, align 8
  %8 = getelementptr inbounds nuw %struct.SDL_DriverSwitch_Context, ptr %7, i32 0, i32 0
  %9 = load ptr, ptr %8, align 8
  %10 = getelementptr inbounds nuw %struct.SDL_HIDAPI_Device, ptr %9, i32 0, i32 4
  %11 = load i16, ptr %10, align 8
  store i16 %11, ptr %4, align 2
  call void @llvm.lifetime.start.p0(i64 2, ptr %5) #6
  %12 = load ptr, ptr %3, align 8
  %13 = getelementptr inbounds nuw %struct.SDL_DriverSwitch_Context, ptr %12, i32 0, i32 0
  %14 = load ptr, ptr %13, align 8
  %15 = getelementptr inbounds nuw %struct.SDL_HIDAPI_Device, ptr %14, i32 0, i32 5
  %16 = load i16, ptr %15, align 2
  store i16 %16, ptr %5, align 2
  %17 = load i16, ptr %4, align 2
  %18 = zext i16 %17 to i32
  %19 = icmp eq i32 %18, 0
  br i1 %19, label %20, label %25

20:                                               ; preds = %1
  %21 = load i16, ptr %5, align 2
  %22 = zext i16 %21 to i32
  %23 = icmp eq i32 %22, 0
  br i1 %23, label %24, label %25

24:                                               ; preds = %20
  store i1 false, ptr %2, align 1
  store i32 1, ptr %6, align 4
  br label %56

25:                                               ; preds = %20, %1
  %26 = load i16, ptr %4, align 2
  %27 = zext i16 %26 to i32
  %28 = icmp eq i32 %27, 3853
  br i1 %28, label %29, label %34

29:                                               ; preds = %25
  %30 = load i16, ptr %5, align 2
  %31 = zext i16 %30 to i32
  %32 = icmp eq i32 %31, 246
  br i1 %32, label %33, label %34

33:                                               ; preds = %29
  store i1 false, ptr %2, align 1
  store i32 1, ptr %6, align 4
  br label %56

34:                                               ; preds = %29, %25
  %35 = load ptr, ptr %3, align 8
  %36 = getelementptr inbounds nuw %struct.SDL_DriverSwitch_Context, ptr %35, i32 0, i32 10
  %37 = load i32, ptr %36, align 8
  %38 = icmp eq i32 %37, 0
  br i1 %38, label %44, label %39

39:                                               ; preds = %34
  %40 = load ptr, ptr %3, align 8
  %41 = getelementptr inbounds nuw %struct.SDL_DriverSwitch_Context, ptr %40, i32 0, i32 10
  %42 = load i32, ptr %41, align 8
  %43 = icmp eq i32 %42, 6
  br i1 %43, label %44, label %45

44:                                               ; preds = %39, %34
  store i1 false, ptr %2, align 1
  store i32 1, ptr %6, align 4
  br label %56

45:                                               ; preds = %39
  %46 = load i16, ptr %4, align 2
  %47 = zext i16 %46 to i32
  %48 = icmp eq i32 %47, 1406
  br i1 %48, label %49, label %55

49:                                               ; preds = %45
  %50 = load ptr, ptr %3, align 8
  %51 = getelementptr inbounds nuw %struct.SDL_DriverSwitch_Context, ptr %50, i32 0, i32 10
  %52 = load i32, ptr %51, align 8
  %53 = icmp ugt i32 %52, 3
  br i1 %53, label %54, label %55

54:                                               ; preds = %49
  store i1 false, ptr %2, align 1
  store i32 1, ptr %6, align 4
  br label %56

55:                                               ; preds = %49, %45
  store i1 true, ptr %2, align 1
  store i32 1, ptr %6, align 4
  br label %56

56:                                               ; preds = %55, %54, %44, %33, %24
  call void @llvm.lifetime.end.p0(i64 2, ptr %5) #6
  call void @llvm.lifetime.end.p0(i64 2, ptr %4) #6
  %57 = load i1, ptr %2, align 1
  ret i1 %57
}

; Function Attrs: nounwind uwtable
define internal zeroext i1 @WriteRumble(ptr noundef %0) #0 {
  %2 = alloca ptr, align 8
  store ptr %0, ptr %2, align 8
  %3 = load ptr, ptr %2, align 8
  %4 = getelementptr inbounds nuw %struct.SDL_DriverSwitch_Context, ptr %3, i32 0, i32 19
  %5 = getelementptr inbounds nuw %struct.SwitchCommonOutputPacket_t, ptr %4, i32 0, i32 0
  store i8 16, ptr %5, align 2
  %6 = load ptr, ptr %2, align 8
  %7 = getelementptr inbounds nuw %struct.SDL_DriverSwitch_Context, ptr %6, i32 0, i32 14
  %8 = load i8, ptr %7, align 4
  %9 = load ptr, ptr %2, align 8
  %10 = getelementptr inbounds nuw %struct.SDL_DriverSwitch_Context, ptr %9, i32 0, i32 19
  %11 = getelementptr inbounds nuw %struct.SwitchCommonOutputPacket_t, ptr %10, i32 0, i32 1
  store i8 %8, ptr %11, align 1
  %12 = load ptr, ptr %2, align 8
  %13 = getelementptr inbounds nuw %struct.SDL_DriverSwitch_Context, ptr %12, i32 0, i32 14
  %14 = load i8, ptr %13, align 4
  %15 = zext i8 %14 to i32
  %16 = add nsw i32 %15, 1
  %17 = and i32 %16, 15
  %18 = trunc i32 %17 to i8
  %19 = load ptr, ptr %2, align 8
  %20 = getelementptr inbounds nuw %struct.SDL_DriverSwitch_Context, ptr %19, i32 0, i32 14
  store i8 %18, ptr %20, align 4
  %21 = call i64 @SDL_GetTicks_REAL()
  %22 = load ptr, ptr %2, align 8
  %23 = getelementptr inbounds nuw %struct.SDL_DriverSwitch_Context, ptr %22, i32 0, i32 23
  store i64 %21, ptr %23, align 8
  %24 = load ptr, ptr %2, align 8
  %25 = load ptr, ptr %2, align 8
  %26 = getelementptr inbounds nuw %struct.SDL_DriverSwitch_Context, ptr %25, i32 0, i32 19
  %27 = call zeroext i1 @WritePacket(ptr noundef %24, ptr noundef %26, i8 noundef zeroext 10)
  ret i1 %27
}

; Function Attrs: nounwind uwtable
define internal zeroext i1 @HIDAPI_DriverSwitch_SendJoystickEffect(ptr noundef %0, ptr noundef %1, ptr noundef %2, i32 noundef %3) #0 {
  %5 = alloca i1, align 1
  %6 = alloca ptr, align 8
  %7 = alloca ptr, align 8
  %8 = alloca ptr, align 8
  %9 = alloca i32, align 4
  %10 = alloca ptr, align 8
  %11 = alloca ptr, align 8
  %12 = alloca i32, align 4
  %13 = alloca ptr, align 8
  %14 = alloca i32, align 4
  store ptr %0, ptr %6, align 8
  store ptr %1, ptr %7, align 8
  store ptr %2, ptr %8, align 8
  store i32 %3, ptr %9, align 4
  call void @llvm.lifetime.start.p0(i64 8, ptr %10) #6
  %15 = load ptr, ptr %6, align 8
  %16 = getelementptr inbounds nuw %struct.SDL_HIDAPI_Device, ptr %15, i32 0, i32 20
  %17 = load ptr, ptr %16, align 8
  store ptr %17, ptr %10, align 8
  %18 = load i32, ptr %9, align 4
  %19 = sext i32 %18 to i64
  %20 = icmp eq i64 %19, 10
  br i1 %20, label %21, label %54

21:                                               ; preds = %4
  call void @llvm.lifetime.start.p0(i64 8, ptr %11) #6
  %22 = load ptr, ptr %8, align 8
  store ptr %22, ptr %11, align 8
  %23 = load ptr, ptr %11, align 8
  %24 = getelementptr inbounds nuw %struct.SwitchCommonOutputPacket_t, ptr %23, i32 0, i32 0
  %25 = load i8, ptr %24, align 1
  %26 = zext i8 %25 to i32
  %27 = icmp ne i32 %26, 16
  br i1 %27, label %28, label %30

28:                                               ; preds = %21
  %29 = call zeroext i1 (ptr, ...) @SDL_SetError_REAL(ptr noundef @.str.28)
  store i1 %29, ptr %5, align 1
  store i32 1, ptr %12, align 4
  br label %53

30:                                               ; preds = %21
  %31 = load ptr, ptr %10, align 8
  %32 = getelementptr inbounds nuw %struct.SDL_DriverSwitch_Context, ptr %31, i32 0, i32 19
  %33 = getelementptr inbounds nuw %struct.SwitchCommonOutputPacket_t, ptr %32, i32 0, i32 2
  %34 = getelementptr inbounds [2 x %struct.SwitchRumbleData_t], ptr %33, i64 0, i64 0
  %35 = load ptr, ptr %11, align 8
  %36 = getelementptr inbounds nuw %struct.SwitchCommonOutputPacket_t, ptr %35, i32 0, i32 2
  %37 = getelementptr inbounds [2 x %struct.SwitchRumbleData_t], ptr %36, i64 0, i64 0
  call void @llvm.memcpy.p0.p0.i64(ptr align 2 %34, ptr align 1 %37, i64 4, i1 false)
  %38 = load ptr, ptr %10, align 8
  %39 = getelementptr inbounds nuw %struct.SDL_DriverSwitch_Context, ptr %38, i32 0, i32 19
  %40 = getelementptr inbounds nuw %struct.SwitchCommonOutputPacket_t, ptr %39, i32 0, i32 2
  %41 = getelementptr inbounds [2 x %struct.SwitchRumbleData_t], ptr %40, i64 0, i64 1
  %42 = load ptr, ptr %11, align 8
  %43 = getelementptr inbounds nuw %struct.SwitchCommonOutputPacket_t, ptr %42, i32 0, i32 2
  %44 = getelementptr inbounds [2 x %struct.SwitchRumbleData_t], ptr %43, i64 0, i64 1
  call void @llvm.memcpy.p0.p0.i64(ptr align 2 %41, ptr align 1 %44, i64 4, i1 false)
  %45 = load ptr, ptr %10, align 8
  %46 = call zeroext i1 @WriteRumble(ptr noundef %45)
  br i1 %46, label %48, label %47

47:                                               ; preds = %30
  store i1 false, ptr %5, align 1
  store i32 1, ptr %12, align 4
  br label %53

48:                                               ; preds = %30
  %49 = load ptr, ptr %10, align 8
  %50 = getelementptr inbounds nuw %struct.SDL_DriverSwitch_Context, ptr %49, i32 0, i32 24
  store i8 0, ptr %50, align 8
  %51 = load ptr, ptr %10, align 8
  %52 = getelementptr inbounds nuw %struct.SDL_DriverSwitch_Context, ptr %51, i32 0, i32 25
  store i8 0, ptr %52, align 1
  store i1 true, ptr %5, align 1
  store i32 1, ptr %12, align 4
  br label %53

53:                                               ; preds = %48, %47, %28
  call void @llvm.lifetime.end.p0(i64 8, ptr %11) #6
  br label %96

54:                                               ; preds = %4
  %55 = load i32, ptr %9, align 4
  %56 = icmp sge i32 %55, 2
  br i1 %56, label %57, label %93

57:                                               ; preds = %54
  %58 = load i32, ptr %9, align 4
  %59 = icmp sle i32 %58, 256
  br i1 %59, label %60, label %93

60:                                               ; preds = %57
  call void @llvm.lifetime.start.p0(i64 8, ptr %13) #6
  %61 = load ptr, ptr %8, align 8
  store ptr %61, ptr %13, align 8
  call void @llvm.lifetime.start.p0(i64 4, ptr %14) #6
  %62 = load ptr, ptr %13, align 8
  %63 = getelementptr inbounds i8, ptr %62, i64 0
  %64 = load i8, ptr %63, align 1
  %65 = zext i8 %64 to i32
  store i32 %65, ptr %14, align 4
  %66 = load i32, ptr %14, align 4
  %67 = icmp eq i32 %66, 3
  br i1 %67, label %68, label %74

68:                                               ; preds = %60
  %69 = load ptr, ptr %6, align 8
  %70 = getelementptr inbounds nuw %struct.SDL_HIDAPI_Device, ptr %69, i32 0, i32 15
  %71 = load i8, ptr %70, align 4, !range !3, !noundef !4
  %72 = trunc i8 %71 to i1
  br i1 %72, label %74, label %73

73:                                               ; preds = %68
  store i1 true, ptr %5, align 1
  store i32 1, ptr %12, align 4
  br label %92

74:                                               ; preds = %68, %60
  %75 = load i32, ptr %14, align 4
  %76 = icmp eq i32 %75, 56
  br i1 %76, label %77, label %81

77:                                               ; preds = %74
  %78 = load ptr, ptr %10, align 8
  %79 = call zeroext i1 @HasHomeLED(ptr noundef %78)
  br i1 %79, label %81, label %80

80:                                               ; preds = %77
  store i1 true, ptr %5, align 1
  store i32 1, ptr %12, align 4
  br label %92

81:                                               ; preds = %77, %74
  %82 = load ptr, ptr %10, align 8
  %83 = load i32, ptr %14, align 4
  %84 = load ptr, ptr %13, align 8
  %85 = getelementptr inbounds i8, ptr %84, i64 1
  %86 = load i32, ptr %9, align 4
  %87 = sub nsw i32 %86, 1
  %88 = trunc i32 %87 to i8
  %89 = call zeroext i1 @WriteSubcommand(ptr noundef %82, i32 noundef %83, ptr noundef %85, i8 noundef zeroext %88, ptr noundef null)
  br i1 %89, label %91, label %90

90:                                               ; preds = %81
  store i1 false, ptr %5, align 1
  store i32 1, ptr %12, align 4
  br label %92

91:                                               ; preds = %81
  store i1 true, ptr %5, align 1
  store i32 1, ptr %12, align 4
  br label %92

92:                                               ; preds = %91, %90, %80, %73
  call void @llvm.lifetime.end.p0(i64 4, ptr %14) #6
  call void @llvm.lifetime.end.p0(i64 8, ptr %13) #6
  br label %96

93:                                               ; preds = %57, %54
  br label %94

94:                                               ; preds = %93
  %95 = call zeroext i1 (ptr, ...) @SDL_SetError_REAL(ptr noundef @.str.27)
  store i1 %95, ptr %5, align 1
  store i32 1, ptr %12, align 4
  br label %96

96:                                               ; preds = %94, %92, %53
  call void @llvm.lifetime.end.p0(i64 8, ptr %10) #6
  %97 = load i1, ptr %5, align 1
  ret i1 %97
}