; Function Attrs: nounwind uwtable
define internal zeroext i1 @HIDAPI_DriverSwitch_SendJoystickEffect(ptr noundef readonly captures(none) %0, ptr readnone captures(none) %1, ptr noundef readonly captures(address_is_null) %2, i32 noundef %3) #0 {
  %5 = alloca [64 x i8], align 16
  %6 = getelementptr inbounds nuw i8, ptr %0, i64 112
  %7 = load ptr, ptr %6, align 8
  %8 = icmp eq i32 %3, 10
  br i1 %8, label %9, label %51

9:                                                ; preds = %4
  %10 = load i8, ptr %2, align 1
  %.not = icmp eq i8 %10, 16
  br i1 %.not, label %13, label %11

11:                                               ; preds = %9
  %12 = tail call zeroext i1 (ptr, ...) @SDL_SetError_REAL(ptr noundef nonnull @.str.28) #9
  br label %HasHomeLED.exit.thread

13:                                               ; preds = %9
  %14 = getelementptr inbounds nuw i8, ptr %7, i64 56
  %15 = getelementptr inbounds nuw i8, ptr %2, i64 2
  %16 = load i32, ptr %15, align 1
  store i32 %16, ptr %14, align 2
  %17 = getelementptr inbounds nuw i8, ptr %7, i64 60
  %18 = getelementptr inbounds nuw i8, ptr %2, i64 6
  %19 = load i32, ptr %18, align 1
  store i32 %19, ptr %17, align 2
  %20 = getelementptr inbounds nuw i8, ptr %7, i64 54
  store i8 16, ptr %20, align 2
  %21 = getelementptr inbounds nuw i8, ptr %7, i64 44
  %22 = load i8, ptr %21, align 4
  %23 = getelementptr inbounds nuw i8, ptr %7, i64 55
  store i8 %22, ptr %23, align 1
  %24 = add i8 %22, 1
  %25 = and i8 %24, 15
  store i8 %25, ptr %21, align 4
  %26 = tail call i64 @SDL_GetTicks_REAL() #9
  %27 = getelementptr inbounds nuw i8, ptr %7, i64 136
  store i64 %26, ptr %27, align 8
  call void @llvm.lifetime.start.p0(i64 64, ptr nonnull %5) #9
  %28 = load ptr, ptr %7, align 8
  %29 = getelementptr inbounds nuw i8, ptr %28, i64 84
  %30 = load i8, ptr %29, align 4, !range !3, !noundef !4
  %31 = trunc nuw i8 %30 to i1
  %32 = select i1 %31, i64 49, i64 64
  call void @llvm.memcpy.p0.p0.i64(ptr noundef nonnull align 16 dereferenceable(10) %5, ptr noundef nonnull align 1 dereferenceable(10) %20, i64 10, i1 false)
  %33 = getelementptr inbounds nuw i8, ptr %5, i64 10
  %34 = add nsw i64 %32, -10
  call void @llvm.memset.p0.i64(ptr noundef nonnull align 2 dereferenceable(1) %33, i8 0, i64 %34, i1 false)
  %35 = getelementptr inbounds nuw i8, ptr %7, i64 24
  %36 = load i8, ptr %35, align 8, !range !3, !noundef !4
  %37 = trunc nuw i8 %36 to i1
  br i1 %37, label %38, label %42

38:                                               ; preds = %13
  %39 = getelementptr inbounds nuw i8, ptr %28, i64 128
  %40 = load ptr, ptr %39, align 8
  %41 = call i32 @SDL_hid_write_REAL(ptr noundef %40, ptr noundef nonnull %5, i64 noundef %32) #9
  br label %WriteRumble.exit

42:                                               ; preds = %13
  %43 = tail call zeroext i1 @SDL_HIDAPI_LockRumble() #9
  br i1 %43, label %44, label %WriteRumble.exit.thread

WriteRumble.exit.thread:                          ; preds = %42
  call void @llvm.lifetime.end.p0(i64 64, ptr nonnull %5) #9
  br label %HasHomeLED.exit.thread

44:                                               ; preds = %42
  %45 = trunc nuw nsw i64 %32 to i32
  %46 = load ptr, ptr %7, align 8
  %47 = call i32 @SDL_HIDAPI_SendRumbleAndUnlock(ptr noundef %46, ptr noundef nonnull %5, i32 noundef range(i32 10, 65) %45) #9
  br label %WriteRumble.exit

WriteRumble.exit:                                 ; preds = %38, %44
  %.0.in.i.i = phi i32 [ %41, %38 ], [ %47, %44 ]
  %.0.i.i = icmp sgt i32 %.0.in.i.i, -1
  call void @llvm.lifetime.end.p0(i64 64, ptr nonnull %5) #9
  br i1 %.0.i.i, label %48, label %HasHomeLED.exit.thread

48:                                               ; preds = %WriteRumble.exit
  %49 = getelementptr inbounds nuw i8, ptr %7, i64 144
  store i8 0, ptr %49, align 8
  %50 = getelementptr inbounds nuw i8, ptr %7, i64 145
  store i8 0, ptr %50, align 1
  br label %HasHomeLED.exit.thread

51:                                               ; preds = %4
  %52 = add i32 %3, -2
  %or.cond = icmp ult i32 %52, 255
  br i1 %or.cond, label %53, label %84

53:                                               ; preds = %51
  %54 = load i8, ptr %2, align 1
  %55 = zext i8 %54 to i32
  switch i8 %54, label %.split [
    i8 3, label %56
    i8 56, label %64
  ]

56:                                               ; preds = %53
  %57 = getelementptr inbounds nuw i8, ptr %0, i64 84
  %58 = load i8, ptr %57, align 4, !range !3, !noundef !4
  %59 = trunc nuw i8 %58 to i1
  br i1 %59, label %.split, label %HasHomeLED.exit.thread

.split:                                           ; preds = %56, %53
  %60 = getelementptr inbounds nuw i8, ptr %2, i64 1
  %61 = trunc i32 %3 to i8
  %62 = add i8 %61, -1
  %63 = tail call fastcc zeroext i1 @WriteSubcommand(ptr noundef %7, i32 noundef %55, ptr noundef nonnull %60, i8 noundef zeroext %62, ptr noundef null)
  br label %HasHomeLED.exit.thread

64:                                               ; preds = %53
  %65 = load ptr, ptr %7, align 8
  %66 = getelementptr inbounds nuw i8, ptr %65, i64 32
  %67 = load i16, ptr %66, align 8
  %68 = getelementptr inbounds nuw i8, ptr %65, i64 34
  %69 = load i16, ptr %68, align 2
  %70 = icmp eq i16 %67, 0
  %71 = icmp eq i16 %69, 0
  %or.cond.i = select i1 %70, i1 %71, i1 false
  br i1 %or.cond.i, label %HasHomeLED.exit.thread, label %72

72:                                               ; preds = %64
  %73 = icmp eq i16 %67, 3853
  %74 = icmp eq i16 %69, 246
  %or.cond5.i = select i1 %73, i1 %74, i1 false
  br i1 %or.cond5.i, label %HasHomeLED.exit.thread, label %75

75:                                               ; preds = %72
  %76 = getelementptr inbounds nuw i8, ptr %7, i64 32
  %77 = load i32, ptr %76, align 8
  switch i32 %77, label %HasHomeLED.exit [
    i32 0, label %HasHomeLED.exit.thread
    i32 6, label %HasHomeLED.exit.thread
  ]

HasHomeLED.exit:                                  ; preds = %75
  %78 = icmp ne i16 %67, 1406
  %79 = icmp ult i32 %77, 4
  %or.cond16.not.i = or i1 %78, %79
  br i1 %or.cond16.not.i, label %.split24, label %HasHomeLED.exit.thread

.split24:                                         ; preds = %HasHomeLED.exit
  %80 = getelementptr inbounds nuw i8, ptr %2, i64 1
  %81 = trunc i32 %3 to i8
  %82 = add i8 %81, -1
  %83 = tail call fastcc zeroext i1 @WriteSubcommand(ptr noundef nonnull %7, i32 noundef 56, ptr noundef nonnull %80, i8 noundef zeroext %82, ptr noundef null)
  br label %HasHomeLED.exit.thread

84:                                               ; preds = %51
  %85 = tail call zeroext i1 (ptr, ...) @SDL_SetError_REAL(ptr noundef nonnull @.str.27) #9
  br label %HasHomeLED.exit.thread

HasHomeLED.exit.thread:                           ; preds = %75, %75, %72, %64, %.split, %.split24, %WriteRumble.exit.thread, %56, %HasHomeLED.exit, %11, %48, %WriteRumble.exit, %84
  %.1 = phi i1 [ %85, %84 ], [ %12, %11 ], [ true, %48 ], [ false, %WriteRumble.exit ], [ true, %56 ], [ true, %HasHomeLED.exit ], [ false, %WriteRumble.exit.thread ], [ %63, %.split ], [ %83, %.split24 ], [ true, %64 ], [ true, %72 ], [ true, %75 ], [ true, %75 ]
  ret i1 %.1
}